ARM GAS  C:\Users\danie\AppData\Local\Temp\ccLnSvYf.s 			page 1


   1              		.syntax unified
   2              		.cpu cortex-m3
   3              		.fpu softvfp
   4              		.eabi_attribute 20, 1
   5              		.eabi_attribute 21, 1
   6              		.eabi_attribute 23, 3
   7              		.eabi_attribute 24, 1
   8              		.eabi_attribute 25, 1
   9              		.eabi_attribute 26, 1
  10              		.eabi_attribute 30, 1
  11              		.eabi_attribute 34, 1
  12              		.eabi_attribute 18, 4
  13              		.thumb
  14              		.syntax unified
  15              		.file	"main.c"
  16              		.text
  17              	.Ltext0:
  18              		.cfi_sections	.debug_frame
  19              		.global	__aeabi_ui2d
  20              		.global	__aeabi_dsub
  21              		.global	__aeabi_ddiv
  22              		.global	__aeabi_dcmpgt
  23              		.global	__aeabi_dcmplt
  24              		.global	__aeabi_dmul
  25              		.global	__aeabi_dadd
  26              		.global	__aeabi_d2uiz
  27              		.section	.text.steer_inter,"ax",%progbits
  28              		.align	2
  29              		.global	steer_inter
  30              		.thumb
  31              		.thumb_func
  32              		.type	steer_inter, %function
  33              	steer_inter:
  34              	.LFB64:
  35              		.file 1 "main.c"
   1:main.c        **** // ALL DEBUG OUTPUTS ARE IN P5[1-5]
   2:main.c        **** 
   3:main.c        **** #include "project.h"
   4:main.c        **** #include <stdio.h>
   5:main.c        **** 
   6:main.c        **** // Speed control constants and variables
   7:main.c        **** #define TARGET_SPEED 3.65
   8:main.c        **** #define WHEEL_CIRCUMFERENCE 0.5
   9:main.c        **** #define PULSES_PER_TURN 5
  10:main.c        **** 
  11:main.c        **** #define Kp 10
  12:main.c        **** #define Ki 1.0
  13:main.c        **** #define base 120
  14:main.c        **** 
  15:main.c        **** double speed = 0.0;
  16:main.c        **** double error = 0.0;
  17:main.c        **** uint16 old = 65535;
  18:main.c        **** uint16 new;
  19:main.c        **** uint16 elapsed;
  20:main.c        **** double PWM_base = 30;
  21:main.c        **** double pwm;
  22:main.c        **** 
ARM GAS  C:\Users\danie\AppData\Local\Temp\ccLnSvYf.s 			page 2


  23:main.c        **** double err;
  24:main.c        **** double acc_err = 0;
  25:main.c        **** 
  26:main.c        **** char strbuf[32];
  27:main.c        **** 
  28:main.c        **** // Line-following constants and variables       
  29:main.c        **** #define MIDDLE_LINE 675
  30:main.c        **** double Kp_steering = 1;
  31:main.c        **** double Kd_steering = -0.05;
  32:main.c        **** 
  33:main.c        **** double error_steering = 0;
  34:main.c        **** double prev_steering = 0; // for kd calculation
  35:main.c        **** double steeringOutput = 0;
  36:main.c        **** int steeringPWM = 0;
  37:main.c        **** double sampledTime;
  38:main.c        **** 
  39:main.c        **** #define PWM_MIN 1020
  40:main.c        **** #define PWM_CENTER 1500
  41:main.c        **** #define PWM_MAX 1980
  42:main.c        **** 
  43:main.c        **** char str_buf [32];
  44:main.c        **** 
  45:main.c        **** // C Sync ISR - increments line count and signals the middle line
  46:main.c        **** CY_ISR(steer_inter) {
  36              		.loc 1 46 0
  37              		.cfi_startproc
  38              		@ args = 0, pretend = 0, frame = 0
  39              		@ frame_needed = 0, uses_anonymous_args = 0
  40 0000 2DE9F047 		push	{r4, r5, r6, r7, r8, r9, r10, lr}
  41              		.cfi_def_cfa_offset 32
  42              		.cfi_offset 4, -32
  43              		.cfi_offset 5, -28
  44              		.cfi_offset 6, -24
  45              		.cfi_offset 7, -20
  46              		.cfi_offset 8, -16
  47              		.cfi_offset 9, -12
  48              		.cfi_offset 10, -8
  49              		.cfi_offset 14, -4
  47:main.c        ****     
  48:main.c        ****     // Read the capture value from the sample timer
  49:main.c        ****     sampledTime = 65535 - (double) VID_TIMER_ReadCapture();
  50              		.loc 1 49 0
  51 0004 FFF7FEFF 		bl	VID_TIMER_ReadCapture
  52              	.LVL0:
  53 0008 FFF7FEFF 		bl	__aeabi_ui2d
  54              	.LVL1:
  55 000c 0246     		mov	r2, r0
  56 000e 0B46     		mov	r3, r1
  57 0010 3DA1     		adr	r1, .L10
  58 0012 D1E90001 		ldrd	r0, [r1]
  59 0016 FFF7FEFF 		bl	__aeabi_dsub
  60              	.LVL2:
  61 001a 434B     		ldr	r3, .L10+32
  62 001c C3E90001 		strd	r0, [r3]
  50:main.c        ****     
  51:main.c        ****     // Calculate steering error
  52:main.c        ****     error_steering = sampledTime - MIDDLE_LINE;
ARM GAS  C:\Users\danie\AppData\Local\Temp\ccLnSvYf.s 			page 3


  63              		.loc 1 52 0
  64 0020 0022     		movs	r2, #0
  65 0022 424B     		ldr	r3, .L10+36
  66 0024 FFF7FEFF 		bl	__aeabi_dsub
  67              	.LVL3:
  68 0028 0446     		mov	r4, r0
  69 002a 0D46     		mov	r5, r1
  70 002c 404B     		ldr	r3, .L10+40
  71 002e C3E90045 		strd	r4, [r3]
  53:main.c        ****     double delta_error = (error_steering - prev_steering)/1400;
  72              		.loc 1 53 0
  73 0032 D3E90223 		ldrd	r2, [r3, #8]
  74 0036 FFF7FEFF 		bl	__aeabi_dsub
  75              	.LVL4:
  76 003a 0022     		movs	r2, #0
  77 003c 3D4B     		ldr	r3, .L10+44
  78 003e FFF7FEFF 		bl	__aeabi_ddiv
  79              	.LVL5:
  80 0042 8046     		mov	r8, r0
  81 0044 8946     		mov	r9, r1
  82              	.LVL6:
  54:main.c        ****     
  55:main.c        ****     // If turning, turn off kd
  56:main.c        ****     if (error_steering > 150 || error_steering < -150) {
  83              		.loc 1 56 0
  84 0046 32A3     		adr	r3, .L10+8
  85 0048 D3E90023 		ldrd	r2, [r3]
  86 004c 2046     		mov	r0, r4
  87 004e 2946     		mov	r1, r5
  88 0050 FFF7FEFF 		bl	__aeabi_dcmpgt
  89              	.LVL7:
  90 0054 30B9     		cbnz	r0, .L2
  91              		.loc 1 56 0 is_stmt 0 discriminator 1
  92 0056 0022     		movs	r2, #0
  93 0058 374B     		ldr	r3, .L10+48
  94 005a 2046     		mov	r0, r4
  95 005c 2946     		mov	r1, r5
  96 005e FFF7FEFF 		bl	__aeabi_dcmplt
  97              	.LVL8:
  98 0062 28B1     		cbz	r0, .L8
  99              	.L2:
  57:main.c        ****         Kd_steering = 0;
 100              		.loc 1 57 0 is_stmt 1
 101 0064 0020     		movs	r0, #0
 102 0066 0021     		movs	r1, #0
 103 0068 344B     		ldr	r3, .L10+52
 104 006a C3E90001 		strd	r0, [r3]
 105 006e 05E0     		b	.L5
 106              	.L8:
  58:main.c        ****     } else {
  59:main.c        ****         Kd_steering = -0.05;
 107              		.loc 1 59 0
 108 0070 29A1     		adr	r1, .L10+16
 109 0072 D1E90001 		ldrd	r0, [r1]
 110 0076 314B     		ldr	r3, .L10+52
 111 0078 C3E90001 		strd	r0, [r3]
 112              	.L5:
ARM GAS  C:\Users\danie\AppData\Local\Temp\ccLnSvYf.s 			page 4


  60:main.c        ****     }
  61:main.c        ****     
  62:main.c        ****     // Calculate the steering output using PID
  63:main.c        ****     steeringOutput = PWM_CENTER + (Kp_steering * error_steering) + (Kd_steering * delta_error);
 113              		.loc 1 63 0
 114 007c DFF8BCA0 		ldr	r10, .L10+52
 115 0080 DAE90223 		ldrd	r2, [r10, #8]
 116 0084 2046     		mov	r0, r4
 117 0086 2946     		mov	r1, r5
 118 0088 FFF7FEFF 		bl	__aeabi_dmul
 119              	.LVL9:
 120 008c 24A3     		adr	r3, .L10+24
 121 008e D3E90023 		ldrd	r2, [r3]
 122 0092 FFF7FEFF 		bl	__aeabi_dadd
 123              	.LVL10:
 124 0096 0646     		mov	r6, r0
 125 0098 0F46     		mov	r7, r1
 126 009a DAE90023 		ldrd	r2, [r10]
 127 009e 4046     		mov	r0, r8
 128 00a0 4946     		mov	r1, r9
 129 00a2 FFF7FEFF 		bl	__aeabi_dmul
 130              	.LVL11:
 131 00a6 0246     		mov	r2, r0
 132 00a8 0B46     		mov	r3, r1
 133 00aa 3046     		mov	r0, r6
 134 00ac 3946     		mov	r1, r7
 135 00ae FFF7FEFF 		bl	__aeabi_dadd
 136              	.LVL12:
 137 00b2 1F4E     		ldr	r6, .L10+40
 138 00b4 C6E90401 		strd	r0, [r6, #16]
  64:main.c        ****     steeringPWM = (uint16)steeringOutput; // cast to uint16
 139              		.loc 1 64 0
 140 00b8 FFF7FEFF 		bl	__aeabi_d2uiz
 141              	.LVL13:
 142 00bc 80B2     		uxth	r0, r0
 143 00be B061     		str	r0, [r6, #24]
  65:main.c        ****     
  66:main.c        ****     // Limit steering PWM within the min and max bounds
  67:main.c        ****     if (steeringPWM < PWM_MIN) steeringPWM = PWM_MIN;
 144              		.loc 1 67 0
 145 00c0 B0F57F7F 		cmp	r0, #1020
 146 00c4 02DA     		bge	.L6
 147              		.loc 1 67 0 is_stmt 0 discriminator 1
 148 00c6 4FF47F72 		mov	r2, #1020
 149 00ca B261     		str	r2, [r6, #24]
 150              	.L6:
  68:main.c        ****     if (steeringPWM > PWM_MAX) steeringPWM = PWM_MAX;
 151              		.loc 1 68 0 is_stmt 1
 152 00cc 184B     		ldr	r3, .L10+40
 153 00ce 9A69     		ldr	r2, [r3, #24]
 154 00d0 40F2BC73 		movw	r3, #1980
 155 00d4 9A42     		cmp	r2, r3
 156 00d6 02DD     		ble	.L7
 157              		.loc 1 68 0 is_stmt 0 discriminator 1
 158 00d8 1A46     		mov	r2, r3
 159 00da 154B     		ldr	r3, .L10+40
 160 00dc 9A61     		str	r2, [r3, #24]
ARM GAS  C:\Users\danie\AppData\Local\Temp\ccLnSvYf.s 			page 5


 161              	.L7:
  69:main.c        ****     
  70:main.c        ****     // Store previous error
  71:main.c        ****     prev_steering = error_steering;
 162              		.loc 1 71 0 is_stmt 1
 163 00de 144B     		ldr	r3, .L10+40
 164 00e0 C3E90245 		strd	r4, [r3, #8]
  72:main.c        ****     
  73:main.c        ****     // Update servo
  74:main.c        ****     SERVO_PWM_WriteCompare(steeringPWM);
 165              		.loc 1 74 0
 166 00e4 188B     		ldrh	r0, [r3, #24]
 167 00e6 FFF7FEFF 		bl	SERVO_PWM_WriteCompare
 168              	.LVL14:
  75:main.c        ****     
  76:main.c        ****     // DEBUG
  77:main.c        ****     //UART_PutString("\r\n NAV INTR");
  78:main.c        ****     sprintf(str_buf, "\r\n time:, %f,", sampledTime);
 169              		.loc 1 78 0
 170 00ea 154C     		ldr	r4, .L10+56
 171 00ec 0E4B     		ldr	r3, .L10+32
 172 00ee D3E90023 		ldrd	r2, [r3]
 173 00f2 1449     		ldr	r1, .L10+60
 174 00f4 2046     		mov	r0, r4
 175 00f6 FFF7FEFF 		bl	sprintf
 176              	.LVL15:
  79:main.c        ****     UART_PutString(str_buf);
 177              		.loc 1 79 0
 178 00fa 2046     		mov	r0, r4
 179 00fc FFF7FEFF 		bl	UART_PutString
 180              	.LVL16:
 181 0100 BDE8F087 		pop	{r4, r5, r6, r7, r8, r9, r10, pc}
 182              	.LVL17:
 183              	.L11:
 184 0104 AFF30080 		.align	3
 185              	.L10:
 186 0108 00000000 		.word	0
 187 010c E0FFEF40 		.word	1089470432
 188 0110 00000000 		.word	0
 189 0114 00C06240 		.word	1080213504
 190 0118 9A999999 		.word	-1717986918
 191 011c 9999A9BF 		.word	-1079404135
 192 0120 00000000 		.word	0
 193 0124 00709740 		.word	1083666432
 194 0128 00000000 		.word	sampledTime
 195 012c 00188540 		.word	1082464256
 196 0130 00000000 		.word	.LANCHOR0
 197 0134 00E09540 		.word	1083564032
 198 0138 00C062C0 		.word	-1067270144
 199 013c 00000000 		.word	.LANCHOR1
 200 0140 00000000 		.word	str_buf
 201 0144 00000000 		.word	.LC0
 202              		.cfi_endproc
 203              	.LFE64:
 204              		.size	steer_inter, .-steer_inter
 205              		.section	.text.speed_inter,"ax",%progbits
 206              		.align	2
ARM GAS  C:\Users\danie\AppData\Local\Temp\ccLnSvYf.s 			page 6


 207              		.global	speed_inter
 208              		.thumb
 209              		.thumb_func
 210              		.type	speed_inter, %function
 211              	speed_inter:
 212              	.LFB65:
  80:main.c        ****     /*sprintf(str_buf, "\r\n steering error:  %f", error_steering);
  81:main.c        ****     UART_PutString(str_buf);
  82:main.c        ****     sprintf(str_buf, "\r\n steering pwm:  %f", steeringOutput);
  83:main.c        ****     UART_PutString(str_buf);
  84:main.c        ****     */
  85:main.c        **** }
  86:main.c        **** 
  87:main.c        **** 
  88:main.c        **** CY_ISR(speed_inter) {
 213              		.loc 1 88 0
 214              		.cfi_startproc
 215              		@ args = 0, pretend = 0, frame = 0
 216              		@ frame_needed = 0, uses_anonymous_args = 0
 217 0000 2DE9D043 		push	{r4, r6, r7, r8, r9, lr}
 218              		.cfi_def_cfa_offset 24
 219              		.cfi_offset 4, -24
 220              		.cfi_offset 6, -20
 221              		.cfi_offset 7, -16
 222              		.cfi_offset 8, -12
 223              		.cfi_offset 9, -8
 224              		.cfi_offset 14, -4
  89:main.c        ****     // Read timer capture value
  90:main.c        ****     new = TIMER_ReadCapture();
 225              		.loc 1 90 0
 226 0004 FFF7FEFF 		bl	TIMER_ReadCapture
 227              	.LVL18:
 228 0008 374B     		ldr	r3, .L22+8
 229 000a 1880     		strh	r0, [r3]	@ movhi
  91:main.c        ****     
  92:main.c        ****     // Calculate elapsed time, handling timer overflow
  93:main.c        ****     if(new <= old)
 230              		.loc 1 93 0
 231 000c 374B     		ldr	r3, .L22+12
 232 000e 1B8A     		ldrh	r3, [r3, #16]
 233 0010 9842     		cmp	r0, r3
 234 0012 03D8     		bhi	.L13
  94:main.c        ****         elapsed = old - new;
 235              		.loc 1 94 0
 236 0014 1B1A     		subs	r3, r3, r0
 237 0016 364A     		ldr	r2, .L22+16
 238 0018 1380     		strh	r3, [r2]	@ movhi
 239 001a 03E0     		b	.L14
 240              	.L13:
  95:main.c        ****     else
  96:main.c        ****         elapsed = 65535 - new + old;
 241              		.loc 1 96 0
 242 001c 1B1A     		subs	r3, r3, r0
 243 001e 013B     		subs	r3, r3, #1
 244 0020 334A     		ldr	r2, .L22+16
 245 0022 1380     		strh	r3, [r2]	@ movhi
 246              	.L14:
ARM GAS  C:\Users\danie\AppData\Local\Temp\ccLnSvYf.s 			page 7


  97:main.c        ****     
  98:main.c        ****     // Calculate speed based on elapsed time
  99:main.c        ****     speed = 1256.0 / (double) elapsed;
 247              		.loc 1 99 0
 248 0024 324B     		ldr	r3, .L22+16
 249 0026 1888     		ldrh	r0, [r3]
 250 0028 FFF7FEFF 		bl	__aeabi_ui2d
 251              	.LVL19:
 252 002c 0246     		mov	r2, r0
 253 002e 0B46     		mov	r3, r1
 254 0030 0020     		movs	r0, #0
 255 0032 3049     		ldr	r1, .L22+20
 256 0034 FFF7FEFF 		bl	__aeabi_ddiv
 257              	.LVL20:
 258 0038 0246     		mov	r2, r0
 259 003a 0B46     		mov	r3, r1
 260 003c 2E4C     		ldr	r4, .L22+24
 261 003e C4E90823 		strd	r2, [r4, #32]
 100:main.c        ****     
 101:main.c        ****     // Calculate error and accumulate for integral control
 102:main.c        ****     err = TARGET_SPEED - speed;
 262              		.loc 1 102 0
 263 0042 27A1     		adr	r1, .L22
 264 0044 D1E90001 		ldrd	r0, [r1]
 265 0048 FFF7FEFF 		bl	__aeabi_dsub
 266              	.LVL21:
 267 004c 8046     		mov	r8, r0
 268 004e 8946     		mov	r9, r1
 269 0050 2A4B     		ldr	r3, .L22+28
 270 0052 C3E90089 		strd	r8, [r3]
 103:main.c        ****     acc_err += err;
 271              		.loc 1 103 0
 272 0056 D4E90A23 		ldrd	r2, [r4, #40]
 273 005a FFF7FEFF 		bl	__aeabi_dadd
 274              	.LVL22:
 275 005e 0646     		mov	r6, r0
 276 0060 0F46     		mov	r7, r1
 277 0062 C4E90A67 		strd	r6, [r4, #40]
 104:main.c        ****     
 105:main.c        ****     // Calculate PWM value using PID control
 106:main.c        ****     pwm = PWM_base + Kp * err + Ki * acc_err;
 278              		.loc 1 106 0
 279 0066 0022     		movs	r2, #0
 280 0068 254B     		ldr	r3, .L22+32
 281 006a 4046     		mov	r0, r8
 282 006c 4946     		mov	r1, r9
 283 006e FFF7FEFF 		bl	__aeabi_dmul
 284              	.LVL23:
 285 0072 1E4B     		ldr	r3, .L22+12
 286 0074 D3E90623 		ldrd	r2, [r3, #24]
 287 0078 FFF7FEFF 		bl	__aeabi_dadd
 288              	.LVL24:
 289 007c 0246     		mov	r2, r0
 290 007e 0B46     		mov	r3, r1
 291 0080 3046     		mov	r0, r6
 292 0082 3946     		mov	r1, r7
 293 0084 FFF7FEFF 		bl	__aeabi_dadd
ARM GAS  C:\Users\danie\AppData\Local\Temp\ccLnSvYf.s 			page 8


 294              	.LVL25:
 295 0088 1E4B     		ldr	r3, .L22+36
 296 008a C3E90001 		strd	r0, [r3]
 107:main.c        ****    
 108:main.c        ****     
 109:main.c        ****     // Limit PWM value to valid range
 110:main.c        ****     if (pwm < 5)
 297              		.loc 1 110 0
 298 008e 0022     		movs	r2, #0
 299 0090 1D4B     		ldr	r3, .L22+40
 300 0092 FFF7FEFF 		bl	__aeabi_dcmplt
 301              	.LVL26:
 302 0096 20B1     		cbz	r0, .L15
 111:main.c        ****         pwm = 5;
 303              		.loc 1 111 0
 304 0098 0020     		movs	r0, #0
 305 009a 1B49     		ldr	r1, .L22+40
 306 009c 194B     		ldr	r3, .L22+36
 307 009e C3E90001 		strd	r0, [r3]
 308              	.L15:
 112:main.c        ****     if (pwm > 200)
 309              		.loc 1 112 0
 310 00a2 0022     		movs	r2, #0
 311 00a4 194B     		ldr	r3, .L22+44
 312 00a6 1749     		ldr	r1, .L22+36
 313 00a8 D1E90001 		ldrd	r0, [r1]
 314 00ac FFF7FEFF 		bl	__aeabi_dcmpgt
 315              	.LVL27:
 316 00b0 20B1     		cbz	r0, .L17
 113:main.c        ****         pwm = 200;
 317              		.loc 1 113 0
 318 00b2 0020     		movs	r0, #0
 319 00b4 1549     		ldr	r1, .L22+44
 320 00b6 134B     		ldr	r3, .L22+36
 321 00b8 C3E90001 		strd	r0, [r3]
 322              	.L17:
 114:main.c        **** 
 115:main.c        ****     // slow down at curves 
 116:main.c        ****     /* 
 117:main.c        ****     if (error_steering > 150 || error_steering < -150) {
 118:main.c        ****         pwm -= 15;
 119:main.c        ****     }
 120:main.c        ****     */
 121:main.c        ****    
 122:main.c        ****     
 123:main.c        ****         
 124:main.c        ****     // Send speed data to XBee for telemetry
 125:main.c        ****     // ft/s is really mili-ft/s
 126:main.c        ****     // Cast to int because XBee output only works with int
 127:main.c        ****     /*
 128:main.c        ****     UART_PutString("\r\n SPEED INTER");
 129:main.c        ****     sprintf(strbuf,"\r\n %f ft/s", speed);
 130:main.c        ****     UART_PutString(strbuf);
 131:main.c        ****     sprintf(strbuf,"\r\n pwm = %f", pwm);
 132:main.c        ****     UART_PutString(strbuf);
 133:main.c        ****     */
 134:main.c        ****     
ARM GAS  C:\Users\danie\AppData\Local\Temp\ccLnSvYf.s 			page 9


 135:main.c        ****     // Update PWM value to control motor speed
 136:main.c        ****     PWM_WriteCompare((uint16)pwm);
 323              		.loc 1 136 0
 324 00bc 114B     		ldr	r3, .L22+36
 325 00be D3E90001 		ldrd	r0, [r3]
 326 00c2 FFF7FEFF 		bl	__aeabi_d2uiz
 327              	.LVL28:
 328 00c6 C0B2     		uxtb	r0, r0
 329 00c8 FFF7FEFF 		bl	PWM_WriteCompare
 330              	.LVL29:
 137:main.c        ****     TIMER_ReadStatusRegister();
 331              		.loc 1 137 0
 332 00cc FFF7FEFF 		bl	TIMER_ReadStatusRegister
 333              	.LVL30:
 138:main.c        ****     old = new;
 334              		.loc 1 138 0
 335 00d0 054B     		ldr	r3, .L22+8
 336 00d2 1A88     		ldrh	r2, [r3]
 337 00d4 054B     		ldr	r3, .L22+12
 338 00d6 1A82     		strh	r2, [r3, #16]	@ movhi
 339 00d8 BDE8D083 		pop	{r4, r6, r7, r8, r9, pc}
 340              	.L23:
 341 00dc AFF30080 		.align	3
 342              	.L22:
 343 00e0 33333333 		.word	858993459
 344 00e4 33330D40 		.word	1074606899
 345 00e8 00000000 		.word	new
 346 00ec 00000000 		.word	.LANCHOR1
 347 00f0 00000000 		.word	elapsed
 348 00f4 00A09340 		.word	1083416576
 349 00f8 00000000 		.word	.LANCHOR0
 350 00fc 00000000 		.word	err
 351 0100 00002440 		.word	1076101120
 352 0104 00000000 		.word	pwm
 353 0108 00001440 		.word	1075052544
 354 010c 00006940 		.word	1080623104
 355              		.cfi_endproc
 356              	.LFE65:
 357              		.size	speed_inter, .-speed_inter
 358              		.section	.text.main,"ax",%progbits
 359              		.align	2
 360              		.global	main
 361              		.thumb
 362              		.thumb_func
 363              		.type	main, %function
 364              	main:
 365              	.LFB66:
 139:main.c        **** }
 140:main.c        **** 
 141:main.c        **** // Main function
 142:main.c        **** int main(void) {
 366              		.loc 1 142 0
 367              		.cfi_startproc
 368              		@ Volatile: function does not return.
 369              		@ args = 0, pretend = 0, frame = 0
 370              		@ frame_needed = 0, uses_anonymous_args = 0
 371 0000 08B5     		push	{r3, lr}
ARM GAS  C:\Users\danie\AppData\Local\Temp\ccLnSvYf.s 			page 10


 372              		.cfi_def_cfa_offset 8
 373              		.cfi_offset 3, -8
 374              		.cfi_offset 14, -4
 143:main.c        ****     CyGlobalIntEnable;
 375              		.loc 1 143 0
 376              		.syntax unified
 377              	@ 143 "main.c" 1
 378 0002 62B6     		CPSIE   i
 379              	@ 0 "" 2
 144:main.c        ****     
 145:main.c        ****     // Speed control init
 146:main.c        ****     PWM_Start();
 380              		.loc 1 146 0
 381              		.thumb
 382              		.syntax unified
 383 0004 FFF7FEFF 		bl	PWM_Start
 384              	.LVL31:
 147:main.c        ****     TIMER_Start();
 385              		.loc 1 147 0
 386 0008 FFF7FEFF 		bl	TIMER_Start
 387              	.LVL32:
 148:main.c        ****     UART_Start();
 388              		.loc 1 148 0
 389 000c FFF7FEFF 		bl	UART_Start
 390              	.LVL33:
 149:main.c        **** 
 150:main.c        ****     // Steering control init
 151:main.c        ****     VID_TIMER_Start();
 391              		.loc 1 151 0
 392 0010 FFF7FEFF 		bl	VID_TIMER_Start
 393              	.LVL34:
 152:main.c        ****     SERVO_PWM_Start();
 394              		.loc 1 152 0
 395 0014 FFF7FEFF 		bl	SERVO_PWM_Start
 396              	.LVL35:
 153:main.c        ****     VDAC_Start();
 397              		.loc 1 153 0
 398 0018 FFF7FEFF 		bl	VDAC_Start
 399              	.LVL36:
 154:main.c        ****     COMP_Start();
 400              		.loc 1 154 0
 401 001c FFF7FEFF 		bl	COMP_Start
 402              	.LVL37:
 155:main.c        ****     
 156:main.c        ****     // Interrupts
 157:main.c        ****     INT_SAMPLE_Start();
 403              		.loc 1 157 0
 404 0020 FFF7FEFF 		bl	INT_SAMPLE_Start
 405              	.LVL38:
 158:main.c        ****     INT_SAMPLE_SetVector(steer_inter);
 406              		.loc 1 158 0
 407 0024 0448     		ldr	r0, .L27
 408 0026 FFF7FEFF 		bl	INT_SAMPLE_SetVector
 409              	.LVL39:
 159:main.c        ****     
 160:main.c        ****     HE_ISR_Start();
 410              		.loc 1 160 0
ARM GAS  C:\Users\danie\AppData\Local\Temp\ccLnSvYf.s 			page 11


 411 002a FFF7FEFF 		bl	HE_ISR_Start
 412              	.LVL40:
 161:main.c        ****     HE_ISR_SetVector(speed_inter);
 413              		.loc 1 161 0
 414 002e 0348     		ldr	r0, .L27+4
 415 0030 FFF7FEFF 		bl	HE_ISR_SetVector
 416              	.LVL41:
 417              	.L25:
 418 0034 FEE7     		b	.L25
 419              	.L28:
 420 0036 00BF     		.align	2
 421              	.L27:
 422 0038 00000000 		.word	steer_inter
 423 003c 00000000 		.word	speed_inter
 424              		.cfi_endproc
 425              	.LFE66:
 426              		.size	main, .-main
 427              		.comm	str_buf,32,4
 428              		.comm	sampledTime,8,8
 429              		.global	steeringPWM
 430              		.global	steeringOutput
 431              		.global	prev_steering
 432              		.global	error_steering
 433              		.global	Kd_steering
 434              		.global	Kp_steering
 435              		.comm	strbuf,32,4
 436              		.global	acc_err
 437              		.comm	err,8,8
 438              		.comm	pwm,8,8
 439              		.global	PWM_base
 440              		.comm	elapsed,2,2
 441              		.comm	new,2,2
 442              		.global	old
 443              		.global	error
 444              		.global	speed
 445              		.data
 446              		.align	3
 447              		.set	.LANCHOR1,. + 0
 448              		.type	Kd_steering, %object
 449              		.size	Kd_steering, 8
 450              	Kd_steering:
 451 0000 9A999999 		.word	-1717986918
 452 0004 9999A9BF 		.word	-1079404135
 453              		.type	Kp_steering, %object
 454              		.size	Kp_steering, 8
 455              	Kp_steering:
 456 0008 00000000 		.word	0
 457 000c 0000F03F 		.word	1072693248
 458              		.type	old, %object
 459              		.size	old, 2
 460              	old:
 461 0010 FFFF     		.short	-1
 462 0012 00000000 		.space	6
 462      0000
 463              		.type	PWM_base, %object
 464              		.size	PWM_base, 8
 465              	PWM_base:
ARM GAS  C:\Users\danie\AppData\Local\Temp\ccLnSvYf.s 			page 12


 466 0018 00000000 		.word	0
 467 001c 00003E40 		.word	1077805056
 468              		.section	.rodata.str1.4,"aMS",%progbits,1
 469              		.align	2
 470              	.LC0:
 471 0000 0D0A2074 		.ascii	"\015\012 time:, %f,\000"
 471      696D653A 
 471      2C202566 
 471      2C00
 472              		.bss
 473              		.align	3
 474              		.set	.LANCHOR0,. + 0
 475              		.type	error_steering, %object
 476              		.size	error_steering, 8
 477              	error_steering:
 478 0000 00000000 		.space	8
 478      00000000 
 479              		.type	prev_steering, %object
 480              		.size	prev_steering, 8
 481              	prev_steering:
 482 0008 00000000 		.space	8
 482      00000000 
 483              		.type	steeringOutput, %object
 484              		.size	steeringOutput, 8
 485              	steeringOutput:
 486 0010 00000000 		.space	8
 486      00000000 
 487              		.type	steeringPWM, %object
 488              		.size	steeringPWM, 4
 489              	steeringPWM:
 490 0018 00000000 		.space	4
 491 001c 00000000 		.space	4
 492              		.type	speed, %object
 493              		.size	speed, 8
 494              	speed:
 495 0020 00000000 		.space	8
 495      00000000 
 496              		.type	acc_err, %object
 497              		.size	acc_err, 8
 498              	acc_err:
 499 0028 00000000 		.space	8
 499      00000000 
 500              		.type	error, %object
 501              		.size	error, 8
 502              	error:
 503 0030 00000000 		.space	8
 503      00000000 
 504              		.text
 505              	.Letext0:
 506              		.file 2 "c:\\program files (x86)\\cypress\\psoc creator\\4.4\\psoc creator\\import\\gnu\\arm\\5.4.
 507              		.file 3 "c:\\program files (x86)\\cypress\\psoc creator\\4.4\\psoc creator\\import\\gnu\\arm\\5.4.
 508              		.file 4 "Generated_Source\\PSoC5/cytypes.h"
 509              		.file 5 "Generated_Source\\PSoC5/core_cm3.h"
 510              		.file 6 "Generated_Source\\PSoC5/VID_TIMER.h"
 511              		.file 7 "Generated_Source\\PSoC5/SERVO_PWM.h"
 512              		.file 8 "c:\\program files (x86)\\cypress\\psoc creator\\4.4\\psoc creator\\import\\gnu\\arm\\5.4.
 513              		.file 9 "Generated_Source\\PSoC5/UART.h"
ARM GAS  C:\Users\danie\AppData\Local\Temp\ccLnSvYf.s 			page 13


 514              		.file 10 "Generated_Source\\PSoC5/TIMER.h"
 515              		.file 11 "Generated_Source\\PSoC5/PWM.h"
 516              		.file 12 "Generated_Source\\PSoC5/VDAC.h"
 517              		.file 13 "Generated_Source\\PSoC5/COMP.h"
 518              		.file 14 "Generated_Source\\PSoC5/INT_SAMPLE.h"
 519              		.file 15 "Generated_Source\\PSoC5/HE_ISR.h"